; Function Attrs: mustprogress uwtable
define hidden noundef nonnull align 8 dereferenceable(8) ptr @_ZN3satlsERSoRKNS_9status_ppE(ptr noundef nonnull returned align 8 dereferenceable(8) %out, ptr nocapture noundef nonnull readonly align 8 dereferenceable(16) %p) local_unnamed_addr #3 {
entry:
  %__args.addr.i = alloca i32, align 4
  %0 = load ptr, ptr %p, align 8
  %1 = load i32, ptr %0, align 8
  %m_orig3.i = getelementptr inbounds i8, ptr %0, i64 4
  %2 = load i32, ptr %m_orig3.i, align 4
  switch i32 %1, label %if.end17 [
    i32 3, label %if.end17.sink.split
    i32 0, label %if.then4
    i32 1, label %if.then8
    i32 2, label %land.lhs.true
  ]

if.then4:                                         ; preds = %entry
  br label %if.end17.sink.split

if.then8:                                         ; preds = %entry
  br label %if.end17.sink.split

land.lhs.true:                                    ; preds = %entry
  %cmp.i11 = icmp eq i32 %2, -1
  br i1 %cmp.i11, label %if.end25, label %if.end17.thread23

if.end17.thread23:                                ; preds = %land.lhs.true
  %call14 = tail call noundef nonnull align 8 dereferenceable(8) ptr @_ZStlsISt11char_traitsIcEERSt13basic_ostreamIcT_ES5_PKc(ptr noundef nonnull align 8 dereferenceable(8) %out, ptr noundef nonnull @.str.23)
  br label %if.then19

if.end17.sink.split:                              ; preds = %entry, %if.then8, %if.then4
  %.str.21.sink = phi ptr [ @.str.21, %if.then4 ], [ @.str.22, %if.then8 ], [ @.str, %entry ]
  %call5 = tail call noundef nonnull align 8 dereferenceable(8) ptr @_ZStlsISt11char_traitsIcEERSt13basic_ostreamIcT_ES5_PKc(ptr noundef nonnull align 8 dereferenceable(8) %out, ptr noundef nonnull %.str.21.sink)
  br label %if.end17

if.end17:                                         ; preds = %if.end17.sink.split, %entry
  %cmp.i13 = icmp eq i32 %2, -1
  br i1 %cmp.i13, label %if.end25, label %if.then19

if.then19:                                        ; preds = %if.end17.thread23, %if.end17
  %call20 = tail call noundef nonnull align 8 dereferenceable(8) ptr @_ZStlsISt11char_traitsIcEERSt13basic_ostreamIcT_ES5_PKc(ptr noundef nonnull align 8 dereferenceable(8) %out, ptr noundef nonnull @.str.3)
  %th = getelementptr inbounds i8, ptr %p, i64 8
  %3 = load ptr, ptr %th, align 8
  call void @llvm.lifetime.start.p0(i64 4, ptr nonnull %__args.addr.i)
  store i32 %2, ptr %__args.addr.i, align 4
  %_M_manager.i.i = getelementptr inbounds i8, ptr %3, i64 16
  %4 = load ptr, ptr %_M_manager.i.i, align 8
  %tobool.not.i.i = icmp eq ptr %4, null
  br i1 %tobool.not.i.i, label %if.then.i, label %_ZNKSt8functionIF6symboliEEclEi.exit

if.then.i:                                        ; preds = %if.then19
  tail call void @_ZSt25__throw_bad_function_callv() #21
  unreachable

_ZNKSt8functionIF6symboliEEclEi.exit:             ; preds = %if.then19
  %_M_invoker.i = getelementptr inbounds i8, ptr %3, i64 24
  %5 = load ptr, ptr %_M_invoker.i, align 8
  %call2.i = call ptr %5(ptr noundef nonnull align 8 dereferenceable(16) %3, ptr noundef nonnull align 4 dereferenceable(4) %__args.addr.i)
  call void @llvm.lifetime.end.p0(i64 4, ptr nonnull %__args.addr.i)
  %6 = ptrtoint ptr %call2.i to i64
  %and.i = and i64 %6, 7
  %cmp.i15 = icmp eq i64 %and.i, 0
  br i1 %cmp.i15, label %if.then.i16, label %if.else5.i

if.then.i16:                                      ; preds = %_ZNKSt8functionIF6symboliEEclEi.exit
  %tobool.not.i = icmp eq ptr %call2.i, null
  br i1 %tobool.not.i, label %if.else.i, label %if.then2.i

if.then2.i:                                       ; preds = %if.then.i16
  %call.i = call noundef nonnull align 8 dereferenceable(8) ptr @_ZStlsISt11char_traitsIcEERSt13basic_ostreamIcT_ES5_PKc(ptr noundef nonnull align 8 dereferenceable(8) %call20, ptr noundef nonnull %call2.i)
  br label %if.end25

if.else.i:                                        ; preds = %if.then.i16
  %call4.i = call noundef nonnull align 8 dereferenceable(8) ptr @_ZStlsISt11char_traitsIcEERSt13basic_ostreamIcT_ES5_PKc(ptr noundef nonnull align 8 dereferenceable(8) %call20, ptr noundef nonnull @.str.24)
  br label %if.end25

if.else5.i:                                       ; preds = %_ZNKSt8functionIF6symboliEEclEi.exit
  %call6.i = call noundef nonnull align 8 dereferenceable(8) ptr @_ZStlsISt11char_traitsIcEERSt13basic_ostreamIcT_ES5_PKc(ptr noundef nonnull align 8 dereferenceable(8) %call20, ptr noundef nonnull @.str.26)
  %shr.i = lshr i64 %6, 3
  %conv.i = trunc i64 %shr.i to i32
  %call8.i = call noundef nonnull align 8 dereferenceable(8) ptr @_ZNSolsEi(ptr noundef nonnull align 8 dereferenceable(8) %call6.i, i32 noundef %conv.i)
  br label %if.end25

if.end25:                                         ; preds = %land.lhs.true, %if.else5.i, %if.else.i, %if.then2.i, %if.end17
  ret ptr %out
}